target datalayout = "e-m:e-p270:32:32-p271:32:32-p272:64:64-i64:64-i128:128-f80:128-n8:16:32:64-S128"
target triple = "x86_64-pc-linux-gnu"

%struct.AVChannelLayout = type { i32, i32, %union.anon.1, ptr }
%union.anon.1 = type { i64 }
%struct.AVCodecContext = type { ptr, i32, i32, ptr, i32, i32, ptr, ptr, ptr, i64, i32, i32, ptr, i32, %struct.AVRational, %struct.AVRational, %struct.AVRational, i32, i32, i32, i32, i32, %struct.AVRational, i32, i32, i32, i32, i32, i32, i32, i32, i32, i32, i32, ptr, ptr, i32, float, float, float, float, float, float, float, float, float, i32, i32, i32, i32, i32, i32, i32, i32, i32, i32, i32, i32, ptr, ptr, ptr, i32, i32, i32, i32, i32, i32, i32, i32, i32, i32, %struct.AVChannelLayout, i32, i32, i32, i32, i32, i32, i32, i32, ptr, i32, i32, i32, float, float, i32, i32, i32, i32, i32, ptr, i64, i64, float, float, i32, i32, ptr, ptr, i32, i32, i32, i32, i32, ptr, ptr, ptr, ptr, i32, i32, [8 x i64], i32, i32, i32, i32, i32, i32, i32, ptr, ptr, i32, i32, i32, i32, i32, i32, i32, i32, i32, i32, ptr, ptr, i32, i32, ptr, ptr, ptr, ptr, i32, i32, i64, i32, i32, i64, ptr, i64, ptr, i32, ptr, i32 }
%struct.AVRational = type { i32, i32 }
%struct.AC3DecodeContext = type { ptr, ptr, %struct.GetBitContext, %struct.BswapDSPContext, ptr, %struct.AC3DSPContext, %struct.FmtConvertContext, ptr, ptr, ptr, ptr, [7 x ptr], [7 x ptr], %struct.AVChannelLayout, [2 x ptr], i32, i32, i32, i32, i32, i32, i32, i32, i32, i32, i32, [2 x i32], [2 x i32], i32, i32, i32, i32, i32, i32, i32, i32, i32, i32, i32, i32, i32, i32, i32, float, float, float, float, i32, [2 x float], i32, i32, i32, i32, i32, i32, i32, [6 x i32], [6 x i32], [7 x i32], i32, [18 x i32], i32, [18 x i8], [18 x i8], i32, [7 x i32], [7 x [18 x i32]], i32, [7 x i8], [7 x i8], i32, i32, i32, i32, [17 x i8], [17 x i8], [7 x i8], [7 x [17 x float]], [7 x [17 x float]], [7 x i32], [7 x [256 x [6 x i32]]], i32, i32, i32, i32, i32, i32, i32, i32, [2 x float], float, i32, [2 x float], [7 x i32], [7 x i32], i32, i32, [4 x i32], [7 x i32], [7 x [256 x i8]], [6 x [7 x i32]], %struct.AC3BitAllocParameters, i32, [7 x i32], [7 x i32], [7 x [256 x i8]], [7 x [256 x i16]], [7 x [50 x i16]], [7 x [50 x i16]], [7 x i32], [7 x i32], [7 x [8 x i8]], [7 x [8 x i8]], [7 x [8 x i8]], [7 x i32], %struct.AVLFG, [7 x i32], [7 x ptr], [7 x [256 x i32]], [7 x [256 x float]], [16 x [256 x float]], [256 x float], [256 x float], [16 x [256 x float]], [32832 x i8], [16 x [1536 x float]] }
%struct.GetBitContext = type { ptr, ptr, i32, i32, i32 }
%struct.BswapDSPContext = type { ptr, ptr }
%struct.AC3DSPContext = type { ptr, ptr, ptr, ptr, ptr, ptr, ptr, ptr, i32, i32, ptr, ptr }
%struct.FmtConvertContext = type { ptr, ptr }
%struct.AC3BitAllocParameters = type { i32, i32, i32, i32, i32, i32, i32, i32, i32 }
%struct.AVLFG = type { [64 x i32], i32 }

@ac3_decode_init.init_static_once = internal global i32 0, align 4
@__const.ac3_downmix.mono = private unnamed_addr constant %struct.AVChannelLayout { i32 1, i32 1, %union.anon.1 { i64 4 }, ptr null }, align 8
@__const.ac3_downmix.stereo = private unnamed_addr constant %struct.AVChannelLayout { i32 1, i32 2, %union.anon.1 { i64 3 }, ptr null }, align 8

; Function Attrs: nounwind uwtable
define internal void @ac3_downmix(ptr noundef %0) #1 {
  %2 = alloca ptr, align 8
  %3 = alloca ptr, align 8
  %4 = alloca %struct.AVChannelLayout, align 8
  %5 = alloca %struct.AVChannelLayout, align 8
  %6 = alloca %struct.AVChannelLayout, align 8
  %7 = alloca %struct.AVChannelLayout, align 8
  store ptr %0, ptr %2, align 8, !tbaa !4
  call void @llvm.lifetime.start.p0(i64 8, ptr %3) #12
  %8 = load ptr, ptr %2, align 8, !tbaa !4
  %9 = getelementptr inbounds nuw %struct.AVCodecContext, ptr %8, i32 0, i32 6
  %10 = load ptr, ptr %9, align 8, !tbaa !9
  store ptr %10, ptr %3, align 8, !tbaa !29
  call void @llvm.lifetime.start.p0(i64 24, ptr %4) #12
  call void @llvm.memcpy.p0.p0.i64(ptr align 8 %4, ptr align 8 @__const.ac3_downmix.mono, i64 24, i1 false)
  call void @llvm.lifetime.start.p0(i64 24, ptr %5) #12
  call void @llvm.memcpy.p0.p0.i64(ptr align 8 %5, ptr align 8 @__const.ac3_downmix.stereo, i64 24, i1 false)
  %11 = load ptr, ptr %2, align 8, !tbaa !4
  %12 = getelementptr inbounds nuw %struct.AVCodecContext, ptr %11, i32 0, i32 71
  %13 = getelementptr inbounds nuw %struct.AVChannelLayout, ptr %12, i32 0, i32 1
  %14 = load i32, ptr %13, align 4, !tbaa !123
  %15 = icmp sgt i32 %14, 1
  br i1 %15, label %16, label %30

16:                                               ; preds = %1
  %17 = load ptr, ptr %3, align 8, !tbaa !29
  %18 = getelementptr inbounds nuw %struct.AC3DecodeContext, ptr %17, i32 0, i32 13
  %19 = call i32 @av_channel_layout_compare(ptr noundef %18, ptr noundef %4)
  %20 = icmp ne i32 %19, 0
  br i1 %20, label %30, label %21

21:                                               ; preds = %16
  %22 = load ptr, ptr %2, align 8, !tbaa !4
  %23 = getelementptr inbounds nuw %struct.AVCodecContext, ptr %22, i32 0, i32 71
  call void @av_channel_layout_uninit(ptr noundef %23)
  %24 = load ptr, ptr %2, align 8, !tbaa !4
  %25 = getelementptr inbounds nuw %struct.AVCodecContext, ptr %24, i32 0, i32 71
  %26 = getelementptr inbounds nuw %struct.AVChannelLayout, ptr %6, i32 0, i32 0
  store i32 1, ptr %26, align 8, !tbaa !73
  %27 = getelementptr inbounds nuw %struct.AVChannelLayout, ptr %6, i32 0, i32 1
  store i32 1, ptr %27, align 4, !tbaa !74
  %28 = getelementptr inbounds nuw %struct.AVChannelLayout, ptr %6, i32 0, i32 2
  store i64 4, ptr %28, align 8, !tbaa !61
  %29 = getelementptr inbounds nuw %struct.AVChannelLayout, ptr %6, i32 0, i32 3
  store ptr null, ptr %29, align 8, !tbaa !75
  call void @llvm.memcpy.p0.p0.i64(ptr align 8 %25, ptr align 8 %6, i64 24, i1 false), !tbaa.struct !141
  br label %51

30:                                               ; preds = %16, %1
  %31 = load ptr, ptr %2, align 8, !tbaa !4
  %32 = getelementptr inbounds nuw %struct.AVCodecContext, ptr %31, i32 0, i32 71
  %33 = getelementptr inbounds nuw %struct.AVChannelLayout, ptr %32, i32 0, i32 1
  %34 = load i32, ptr %33, align 4, !tbaa !123
  %35 = icmp sgt i32 %34, 2
  br i1 %35, label %36, label %50

36:                                               ; preds = %30
  %37 = load ptr, ptr %3, align 8, !tbaa !29
  %38 = getelementptr inbounds nuw %struct.AC3DecodeContext, ptr %37, i32 0, i32 13
  %39 = call i32 @av_channel_layout_compare(ptr noundef %38, ptr noundef %5)
  %40 = icmp ne i32 %39, 0
  br i1 %40, label %50, label %41

41:                                               ; preds = %36
  %42 = load ptr, ptr %2, align 8, !tbaa !4
  %43 = getelementptr inbounds nuw %struct.AVCodecContext, ptr %42, i32 0, i32 71
  call void @av_channel_layout_uninit(ptr noundef %43)
  %44 = load ptr, ptr %2, align 8, !tbaa !4
  %45 = getelementptr inbounds nuw %struct.AVCodecContext, ptr %44, i32 0, i32 71
  %46 = getelementptr inbounds nuw %struct.AVChannelLayout, ptr %7, i32 0, i32 0
  store i32 1, ptr %46, align 8, !tbaa !73
  %47 = getelementptr inbounds nuw %struct.AVChannelLayout, ptr %7, i32 0, i32 1
  store i32 2, ptr %47, align 4, !tbaa !74
  %48 = getelementptr inbounds nuw %struct.AVChannelLayout, ptr %7, i32 0, i32 2
  store i64 3, ptr %48, align 8, !tbaa !61
  %49 = getelementptr inbounds nuw %struct.AVChannelLayout, ptr %7, i32 0, i32 3
  store ptr null, ptr %49, align 8, !tbaa !75
  call void @llvm.memcpy.p0.p0.i64(ptr align 8 %45, ptr align 8 %7, i64 24, i1 false), !tbaa.struct !141
  br label %50

50:                                               ; preds = %41, %36, %30
  br label %51

51:                                               ; preds = %50, %21
  call void @llvm.lifetime.end.p0(i64 24, ptr %5) #12
  call void @llvm.lifetime.end.p0(i64 24, ptr %4) #12
  call void @llvm.lifetime.end.p0(i64 8, ptr %3) #12
  ret void
}

; Function Attrs: cold nounwind optsize uwtable
define internal i32 @ac3_decode_init(ptr noundef %0) #0 {
  %2 = alloca i32, align 4
  %3 = alloca ptr, align 8
  %4 = alloca ptr, align 8
  %5 = alloca float, align 4
  %6 = alloca i32, align 4
  %7 = alloca i32, align 4
  %8 = alloca i32, align 4
  store ptr %0, ptr %3, align 8, !tbaa !4
  call void @llvm.lifetime.start.p0(i64 8, ptr %4) #12
  %9 = load ptr, ptr %3, align 8, !tbaa !4
  %10 = getelementptr inbounds nuw %struct.AVCodecContext, ptr %9, i32 0, i32 6
  %11 = load ptr, ptr %10, align 8, !tbaa !9
  store ptr %11, ptr %4, align 8, !tbaa !29
  call void @llvm.lifetime.start.p0(i64 4, ptr %5) #12
  store float 1.000000e+00, ptr %5, align 4, !tbaa !31
  call void @llvm.lifetime.start.p0(i64 4, ptr %6) #12
  call void @llvm.lifetime.start.p0(i64 4, ptr %7) #12
  %12 = load ptr, ptr %3, align 8, !tbaa !4
  %13 = load ptr, ptr %4, align 8, !tbaa !29
  %14 = getelementptr inbounds nuw %struct.AC3DecodeContext, ptr %13, i32 0, i32 1
  store ptr %12, ptr %14, align 8, !tbaa !32
  %15 = load ptr, ptr %4, align 8, !tbaa !29
  %16 = getelementptr inbounds nuw %struct.AC3DecodeContext, ptr %15, i32 0, i32 7
  %17 = load ptr, ptr %4, align 8, !tbaa !29
  %18 = getelementptr inbounds nuw %struct.AC3DecodeContext, ptr %17, i32 0, i32 9
  %19 = call i32 @av_tx_init(ptr noundef %16, ptr noundef %18, i32 noundef 1, i32 noundef 1, i32 noundef 128, ptr noundef %5, i64 noundef 0)
  store i32 %19, ptr %7, align 4, !tbaa !42
  %20 = icmp ne i32 %19, 0
  br i1 %20, label %21, label %23

21:                                               ; preds = %1
  %22 = load i32, ptr %7, align 4, !tbaa !42
  store i32 %22, ptr %2, align 4
  store i32 1, ptr %8, align 4
  br label %93

23:                                               ; preds = %1
  %24 = load ptr, ptr %4, align 8, !tbaa !29
  %25 = getelementptr inbounds nuw %struct.AC3DecodeContext, ptr %24, i32 0, i32 8
  %26 = load ptr, ptr %4, align 8, !tbaa !29
  %27 = getelementptr inbounds nuw %struct.AC3DecodeContext, ptr %26, i32 0, i32 10
  %28 = call i32 @av_tx_init(ptr noundef %25, ptr noundef %27, i32 noundef 1, i32 noundef 1, i32 noundef 256, ptr noundef %5, i64 noundef 0)
  store i32 %28, ptr %7, align 4, !tbaa !42
  %29 = icmp ne i32 %28, 0
  br i1 %29, label %30, label %32

30:                                               ; preds = %23
  %31 = load i32, ptr %7, align 4, !tbaa !42
  store i32 %31, ptr %2, align 4
  store i32 1, ptr %8, align 4
  br label %93

32:                                               ; preds = %23
  %33 = load ptr, ptr %4, align 8, !tbaa !29
  %34 = getelementptr inbounds nuw %struct.AC3DecodeContext, ptr %33, i32 0, i32 121
  %35 = getelementptr inbounds [256 x float], ptr %34, i64 0, i64 0
  call void @ff_kbd_window_init(ptr noundef %35, float noundef 5.000000e+00, i32 noundef 256)
  %36 = load ptr, ptr %4, align 8, !tbaa !29
  %37 = getelementptr inbounds nuw %struct.AC3DecodeContext, ptr %36, i32 0, i32 3
  call void @ff_bswapdsp_init(ptr noundef %37)
  %38 = load ptr, ptr %4, align 8, !tbaa !29
  %39 = getelementptr inbounds nuw %struct.AC3DecodeContext, ptr %38, i32 0, i32 6
  call void @ff_fmt_convert_init(ptr noundef %39)
  %40 = load ptr, ptr %3, align 8, !tbaa !4
  %41 = getelementptr inbounds nuw %struct.AVCodecContext, ptr %40, i32 0, i32 10
  %42 = load i32, ptr %41, align 8, !tbaa !43
  %43 = and i32 %42, 8388608
  %44 = call ptr @avpriv_float_dsp_alloc(i32 noundef %43)
  %45 = load ptr, ptr %4, align 8, !tbaa !29
  %46 = getelementptr inbounds nuw %struct.AC3DecodeContext, ptr %45, i32 0, i32 4
  store ptr %44, ptr %46, align 16, !tbaa !44
  %47 = load ptr, ptr %4, align 8, !tbaa !29
  %48 = getelementptr inbounds nuw %struct.AC3DecodeContext, ptr %47, i32 0, i32 4
  %49 = load ptr, ptr %48, align 16, !tbaa !44
  %50 = icmp ne ptr %49, null
  br i1 %50, label %52, label %51

51:                                               ; preds = %32
  store i32 -12, ptr %2, align 4
  store i32 1, ptr %8, align 4
  br label %93

52:                                               ; preds = %32
  %53 = load ptr, ptr %4, align 8, !tbaa !29
  %54 = getelementptr inbounds nuw %struct.AC3DecodeContext, ptr %53, i32 0, i32 5
  call void @ff_ac3dsp_init(ptr noundef %54)
  %55 = load ptr, ptr %4, align 8, !tbaa !29
  %56 = getelementptr inbounds nuw %struct.AC3DecodeContext, ptr %55, i32 0, i32 115
  call void @av_lfg_init(ptr noundef %56, i32 noundef 0)
  %57 = load ptr, ptr %3, align 8, !tbaa !4
  %58 = getelementptr inbounds nuw %struct.AVCodecContext, ptr %57, i32 0, i32 70
  store i32 8, ptr %58, align 4, !tbaa !45
  %59 = load ptr, ptr %3, align 8, !tbaa !4
  call void @ac3_downmix(ptr noundef %59)
  %60 = load ptr, ptr %4, align 8, !tbaa !29
  %61 = getelementptr inbounds nuw %struct.AC3DecodeContext, ptr %60, i32 0, i32 84
  store i32 1, ptr %61, align 16, !tbaa !46
  store i32 0, ptr %6, align 4, !tbaa !42
  br label %62

62:                                               ; preds = %88, %52
  %63 = load i32, ptr %6, align 4, !tbaa !42
  %64 = icmp slt i32 %63, 7
  br i1 %64, label %65, label %91

65:                                               ; preds = %62
  %66 = load ptr, ptr %4, align 8, !tbaa !29
  %67 = getelementptr inbounds nuw %struct.AC3DecodeContext, ptr %66, i32 0, i32 119
  %68 = load i32, ptr %6, align 4, !tbaa !42
  %69 = sext i32 %68 to i64
  %70 = getelementptr inbounds [7 x [256 x float]], ptr %67, i64 0, i64 %69
  %71 = getelementptr inbounds [256 x float], ptr %70, i64 0, i64 0
  %72 = load ptr, ptr %4, align 8, !tbaa !29
  %73 = getelementptr inbounds nuw %struct.AC3DecodeContext, ptr %72, i32 0, i32 11
  %74 = load i32, ptr %6, align 4, !tbaa !42
  %75 = sext i32 %74 to i64
  %76 = getelementptr inbounds [7 x ptr], ptr %73, i64 0, i64 %75
  store ptr %71, ptr %76, align 8, !tbaa !47
  %77 = load ptr, ptr %4, align 8, !tbaa !29
  %78 = getelementptr inbounds nuw %struct.AC3DecodeContext, ptr %77, i32 0, i32 120
  %79 = load i32, ptr %6, align 4, !tbaa !42
  %80 = sext i32 %79 to i64
  %81 = getelementptr inbounds [16 x [256 x float]], ptr %78, i64 0, i64 %80
  %82 = getelementptr inbounds [256 x float], ptr %81, i64 0, i64 0
  %83 = load ptr, ptr %4, align 8, !tbaa !29
  %84 = getelementptr inbounds nuw %struct.AC3DecodeContext, ptr %83, i32 0, i32 12
  %85 = load i32, ptr %6, align 4, !tbaa !42
  %86 = sext i32 %85 to i64
  %87 = getelementptr inbounds [7 x ptr], ptr %84, i64 0, i64 %86
  store ptr %82, ptr %87, align 8, !tbaa !47
  br label %88

88:                                               ; preds = %65
  %89 = load i32, ptr %6, align 4, !tbaa !42
  %90 = add nsw i32 %89, 1
  store i32 %90, ptr %6, align 4, !tbaa !42
  br label %62, !llvm.loop !49

91:                                               ; preds = %62
  %92 = call i32 @pthread_once(ptr noundef @ac3_decode_init.init_static_once, ptr noundef @ac3_tables_init)
  store i32 0, ptr %2, align 4
  store i32 1, ptr %8, align 4
  br label %93

93:                                               ; preds = %91, %51, %30, %21
  call void @llvm.lifetime.end.p0(i64 4, ptr %7) #12
  call void @llvm.lifetime.end.p0(i64 4, ptr %6) #12
  call void @llvm.lifetime.end.p0(i64 4, ptr %5) #12
  call void @llvm.lifetime.end.p0(i64 8, ptr %4) #12
  %94 = load i32, ptr %2, align 4
  ret i32 %94
}